; Function Attrs: nounwind uwtable
define dso_local ptr @PyModule_NewObject(ptr noundef %0) local_unnamed_addr #0 {
  %2 = tail call ptr @_PyType_AllocNoTrack(ptr noundef nonnull @PyModule_Type, i64 noundef 0) #8
  %3 = icmp eq ptr %2, null
  br i1 %3, label %Py_DECREF.exit, label %4

4:                                                ; preds = %1
  %5 = getelementptr inbounds nuw i8, ptr %2, i64 24
  tail call void @llvm.memset.p0.i64(ptr noundef nonnull align 8 dereferenceable(32) %5, i8 0, i64 32, i1 false)
  %6 = tail call ptr @PyDict_New() #8
  %7 = getelementptr inbounds nuw i8, ptr %2, i64 16
  store ptr %6, ptr %7, align 8, !tbaa !23
  %8 = icmp eq ptr %6, null
  br i1 %8, label %9, label %new_module_notrack.exit

9:                                                ; preds = %4
  %10 = load i32, ptr %2, align 8, !tbaa !22
  %.not.i.i = icmp sgt i32 %10, -1
  br i1 %.not.i.i, label %11, label %Py_DECREF.exit

11:                                               ; preds = %9
  %12 = add nsw i32 %10, -1
  store i32 %12, ptr %2, align 8, !tbaa !22
  %13 = icmp eq i32 %12, 0
  br i1 %13, label %14, label %Py_DECREF.exit

14:                                               ; preds = %11
  tail call void @_Py_Dealloc(ptr noundef nonnull %2) #8
  br label %Py_DECREF.exit

new_module_notrack.exit:                          ; preds = %4
  %15 = tail call fastcc i32 @module_init_dict(ptr noundef nonnull %2, ptr noundef nonnull %6, ptr noundef %0, ptr noundef null)
  %.not = icmp eq i32 %15, 0
  br i1 %.not, label %16, label %18

16:                                               ; preds = %new_module_notrack.exit
  %17 = load ptr, ptr %7, align 8, !tbaa !23
  tail call void @_PyDict_EnablePerThreadRefcounting(ptr noundef %17) #8
  tail call void @_PyObject_SetDeferredRefcount(ptr noundef nonnull %2) #8
  tail call void @PyObject_GC_Track(ptr noundef nonnull %2) #8
  br label %Py_DECREF.exit

18:                                               ; preds = %new_module_notrack.exit
  %19 = load i32, ptr %2, align 8, !tbaa !22
  %.not.i = icmp sgt i32 %19, -1
  br i1 %.not.i, label %20, label %Py_DECREF.exit

20:                                               ; preds = %18
  %21 = add nsw i32 %19, -1
  store i32 %21, ptr %2, align 8, !tbaa !22
  %22 = icmp eq i32 %21, 0
  br i1 %22, label %23, label %Py_DECREF.exit

23:                                               ; preds = %20
  tail call void @_Py_Dealloc(ptr noundef nonnull %2) #8
  br label %Py_DECREF.exit

Py_DECREF.exit:                                   ; preds = %14, %11, %9, %1, %23, %20, %18, %16
  %.0 = phi ptr [ %2, %16 ], [ null, %18 ], [ null, %20 ], [ null, %23 ], [ null, %1 ], [ null, %9 ], [ null, %11 ], [ null, %14 ]
  ret ptr %.0
}